	.section	__TEXT,__text,regular,pure_instructions
	.macosx_version_min 10, 11
	.file	1 "ll.c"
	.file	2 "/usr/include/i386" "_types.h"
	.file	3 "/usr/include/sys/_types" "_size_t.h"
	.globl	_ll_init
	.align	4, 0x90
_ll_init:                               ## @ll_init
Lfunc_begin0:
	.loc	1 34 0                  ## ll.c:34:0
	.cfi_startproc
## BB#0:
	pushq	%rbp
Ltmp0:
	.cfi_def_cfa_offset 16
Ltmp1:
	.cfi_offset %rbp, -16
	movq	%rsp, %rbp
Ltmp2:
	.cfi_def_cfa_register %rbp
	subq	$32, %rsp
	movl	$16, %eax
	movl	%eax, %ecx
	movq	%rdi, -8(%rbp)
	movq	%rsi, -16(%rbp)
	.loc	1 36 9 prologue_end     ## ll.c:36:9
Ltmp3:
	movq	%rcx, %rdi
	callq	_malloc
	.loc	1 36 7 is_stmt 0        ## ll.c:36:7
	movq	%rax, -24(%rbp)
	.loc	1 37 15 is_stmt 1       ## ll.c:37:15
	movq	-8(%rbp), %rax
	.loc	1 37 3 is_stmt 0        ## ll.c:37:3
	movq	-24(%rbp), %rcx
	.loc	1 37 13                 ## ll.c:37:13
	movq	%rax, (%rcx)
	.loc	1 38 15 is_stmt 1       ## ll.c:38:15
	movq	-16(%rbp), %rax
	.loc	1 38 3 is_stmt 0        ## ll.c:38:3
	movq	-24(%rbp), %rcx
	.loc	1 38 13                 ## ll.c:38:13
	movq	%rax, 8(%rcx)
	.loc	1 39 10 is_stmt 1       ## ll.c:39:10
	movq	-24(%rbp), %rax
	.loc	1 39 3 is_stmt 0        ## ll.c:39:3
	addq	$32, %rsp
	popq	%rbp
	retq
Ltmp4:
Lfunc_end0:
	.cfi_endproc

	.globl	_ll_delete
	.align	4, 0x90
_ll_delete:                             ## @ll_delete
Lfunc_begin1:
	.loc	1 41 0 is_stmt 1        ## ll.c:41:0
	.cfi_startproc
## BB#0:
	pushq	%rbp
Ltmp5:
	.cfi_def_cfa_offset 16
Ltmp6:
	.cfi_offset %rbp, -16
	movq	%rsp, %rbp
Ltmp7:
	.cfi_def_cfa_register %rbp
	subq	$16, %rsp
	movq	%rdi, -8(%rbp)
	movq	%rsi, -16(%rbp)
	.loc	1 42 6 prologue_end     ## ll.c:42:6
Ltmp8:
	cmpq	$0, -16(%rbp)
Ltmp9:
	.loc	1 42 6 is_stmt 0        ## ll.c:42:6
	je	LBB1_2
## BB#1:
	.loc	1 43 7 is_stmt 1        ## ll.c:43:7
Ltmp10:
	movq	-16(%rbp), %rax
	.loc	1 43 19 is_stmt 0       ## ll.c:43:19
	movq	-8(%rbp), %rcx
	.loc	1 43 25                 ## ll.c:43:25
	movq	8(%rcx), %rdi
	.loc	1 43 5                  ## ll.c:43:5
	callq	*%rax
Ltmp11:
LBB1_2:
	.loc	1 45 8 is_stmt 1        ## ll.c:45:8
	movq	-8(%rbp), %rax
	.loc	1 45 3 is_stmt 0        ## ll.c:45:3
	movq	%rax, %rdi
	callq	_free
	.loc	1 46 1 is_stmt 1        ## ll.c:46:1
	addq	$16, %rsp
	popq	%rbp
	retq
Ltmp12:
Lfunc_end1:
	.cfi_endproc

	.globl	_stack_init
	.align	4, 0x90
_stack_init:                            ## @stack_init
Lfunc_begin2:
	.loc	1 47 0                  ## ll.c:47:0
	.cfi_startproc
## BB#0:
	pushq	%rbp
Ltmp13:
	.cfi_def_cfa_offset 16
Ltmp14:
	.cfi_offset %rbp, -16
	movq	%rsp, %rbp
Ltmp15:
	.cfi_def_cfa_register %rbp
	subq	$16, %rsp
	movl	$24, %eax
	movl	%eax, %ecx
	movq	%rdi, -8(%rbp)
	.loc	1 49 9 prologue_end     ## ll.c:49:9
Ltmp16:
	movq	%rcx, %rdi
	callq	_malloc
	xorl	%edx, %edx
	movl	%edx, %ecx
	.loc	1 49 7 is_stmt 0        ## ll.c:49:7
	movq	%rax, -16(%rbp)
	.loc	1 50 15 is_stmt 1       ## ll.c:50:15
	movq	%rcx, %rdi
	movq	%rcx, %rsi
	callq	_ll_init
	.loc	1 50 3 is_stmt 0        ## ll.c:50:3
	movq	-16(%rbp), %rcx
	.loc	1 50 13                 ## ll.c:50:13
	movq	%rax, (%rcx)
	.loc	1 51 3 is_stmt 1        ## ll.c:51:3
	movq	-16(%rbp), %rax
	.loc	1 51 15 is_stmt 0       ## ll.c:51:15
	movl	$0, 8(%rax)
	.loc	1 52 21 is_stmt 1       ## ll.c:52:21
	movq	-8(%rbp), %rax
	.loc	1 52 3 is_stmt 0        ## ll.c:52:3
	movq	-16(%rbp), %rcx
	.loc	1 52 19                 ## ll.c:52:19
	movq	%rax, 16(%rcx)
	.loc	1 53 10 is_stmt 1       ## ll.c:53:10
	movq	-16(%rbp), %rax
	.loc	1 53 3 is_stmt 0        ## ll.c:53:3
	addq	$16, %rsp
	popq	%rbp
	retq
Ltmp17:
Lfunc_end2:
	.cfi_endproc

	.globl	_stack_delete
	.align	4, 0x90
_stack_delete:                          ## @stack_delete
Lfunc_begin3:
	.loc	1 55 0 is_stmt 1        ## ll.c:55:0
	.cfi_startproc
## BB#0:
	pushq	%rbp
Ltmp18:
	.cfi_def_cfa_offset 16
Ltmp19:
	.cfi_offset %rbp, -16
	movq	%rsp, %rbp
Ltmp20:
	.cfi_def_cfa_register %rbp
	subq	$32, %rsp
	movq	%rdi, -8(%rbp)
	.loc	1 56 13 prologue_end    ## ll.c:56:13
Ltmp21:
	movq	-8(%rbp), %rdi
	.loc	1 56 19 is_stmt 0       ## ll.c:56:19
	movq	(%rdi), %rdi
	.loc	1 56 7                  ## ll.c:56:7
	movq	%rdi, -16(%rbp)
	.loc	1 57 30 is_stmt 1       ## ll.c:57:30
	movq	-8(%rbp), %rdi
	.loc	1 57 36 is_stmt 0       ## ll.c:57:36
	movq	16(%rdi), %rdi
	.loc	1 57 9                  ## ll.c:57:9
	movq	%rdi, -24(%rbp)
LBB3_1:                                 ## =>This Inner Loop Header: Depth=1
	.loc	1 58 3 is_stmt 1        ## ll.c:58:3
	cmpq	$0, -16(%rbp)
	je	LBB3_3
## BB#2:                                ##   in Loop: Header=BB3_1 Depth=1
	.loc	1 59 15                 ## ll.c:59:15
Ltmp22:
	movq	-16(%rbp), %rdi
	.loc	1 59 20 is_stmt 0       ## ll.c:59:20
	movq	-24(%rbp), %rsi
	.loc	1 59 5                  ## ll.c:59:5
	callq	_ll_delete
	.loc	1 60 11 is_stmt 1       ## ll.c:60:11
	movq	-16(%rbp), %rsi
	.loc	1 60 16 is_stmt 0       ## ll.c:60:16
	movq	(%rsi), %rsi
	.loc	1 60 9                  ## ll.c:60:9
	movq	%rsi, -16(%rbp)
Ltmp23:
	.loc	1 58 3 is_stmt 1        ## ll.c:58:3
	jmp	LBB3_1
LBB3_3:
	.loc	1 62 8                  ## ll.c:62:8
	movq	-8(%rbp), %rax
	.loc	1 62 3 is_stmt 0        ## ll.c:62:3
	movq	%rax, %rdi
	callq	_free
	.loc	1 63 1 is_stmt 1        ## ll.c:63:1
	addq	$32, %rsp
	popq	%rbp
	retq
Ltmp24:
Lfunc_end3:
	.cfi_endproc

	.globl	_stack_push
	.align	4, 0x90
_stack_push:                            ## @stack_push
Lfunc_begin4:
	.loc	1 64 0                  ## ll.c:64:0
	.cfi_startproc
## BB#0:
	pushq	%rbp
Ltmp25:
	.cfi_def_cfa_offset 16
Ltmp26:
	.cfi_offset %rbp, -16
	movq	%rsp, %rbp
Ltmp27:
	.cfi_def_cfa_register %rbp
	subq	$32, %rsp
	movq	%rdi, -8(%rbp)
	movq	%rsi, -16(%rbp)
	.loc	1 65 23 prologue_end    ## ll.c:65:23
Ltmp28:
	movq	-8(%rbp), %rsi
	.loc	1 65 29 is_stmt 0       ## ll.c:65:29
	movq	(%rsi), %rdi
	.loc	1 65 35                 ## ll.c:65:35
	movq	-16(%rbp), %rsi
	.loc	1 65 15                 ## ll.c:65:15
	callq	_ll_init
	.loc	1 65 7                  ## ll.c:65:7
	movq	%rax, -24(%rbp)
	.loc	1 66 16 is_stmt 1       ## ll.c:66:16
	movq	-24(%rbp), %rax
	.loc	1 66 3 is_stmt 0        ## ll.c:66:3
	movq	-8(%rbp), %rsi
	.loc	1 66 14                 ## ll.c:66:14
	movq	%rax, (%rsi)
	.loc	1 67 4 is_stmt 1        ## ll.c:67:4
	movq	-8(%rbp), %rax
	.loc	1 67 17 is_stmt 0       ## ll.c:67:17
	movl	8(%rax), %ecx
	addl	$1, %ecx
	movl	%ecx, 8(%rax)
	.loc	1 68 1 is_stmt 1        ## ll.c:68:1
	addq	$32, %rsp
	popq	%rbp
	retq
Ltmp29:
Lfunc_end4:
	.cfi_endproc

	.globl	_stack_pop
	.align	4, 0x90
_stack_pop:                             ## @stack_pop
Lfunc_begin5:
	.loc	1 69 0                  ## ll.c:69:0
	.cfi_startproc
## BB#0:
	pushq	%rbp
Ltmp30:
	.cfi_def_cfa_offset 16
Ltmp31:
	.cfi_offset %rbp, -16
	movq	%rsp, %rbp
Ltmp32:
	.cfi_def_cfa_register %rbp
	subq	$48, %rsp
	movq	%rdi, -24(%rbp)
	.loc	1 73 6 prologue_end     ## ll.c:73:6
Ltmp33:
	movq	-24(%rbp), %rdi
	cmpl	$0, 8(%rdi)
Ltmp34:
	.loc	1 73 6 is_stmt 0        ## ll.c:73:6
	je	LBB5_2
## BB#1:
	.loc	1 74 18 is_stmt 1       ## ll.c:74:18
Ltmp35:
	movq	-24(%rbp), %rax
	.loc	1 74 24 is_stmt 0       ## ll.c:74:24
	movq	(%rax), %rax
	.loc	1 74 16                 ## ll.c:74:16
	movq	%rax, -32(%rbp)
	.loc	1 74 31                 ## ll.c:74:31
	movq	(%rax), %rax
	.loc	1 74 9                  ## ll.c:74:9
	movq	%rax, -40(%rbp)
	.loc	1 75 12 is_stmt 1       ## ll.c:75:12
	movq	-32(%rbp), %rax
	.loc	1 75 17 is_stmt 0       ## ll.c:75:17
	movq	8(%rax), %rax
	.loc	1 75 10                 ## ll.c:75:10
	movq	%rax, -48(%rbp)
	.loc	1 76 15 is_stmt 1       ## ll.c:76:15
	movq	-32(%rbp), %rdi
	.loc	1 76 19 is_stmt 0       ## ll.c:76:19
	movq	-24(%rbp), %rax
	.loc	1 76 25                 ## ll.c:76:25
	movq	16(%rax), %rsi
	.loc	1 76 5                  ## ll.c:76:5
	callq	_ll_delete
	.loc	1 77 18 is_stmt 1       ## ll.c:77:18
	movq	-40(%rbp), %rax
	.loc	1 77 5 is_stmt 0        ## ll.c:77:5
	movq	-24(%rbp), %rsi
	.loc	1 77 16                 ## ll.c:77:16
	movq	%rax, (%rsi)
	.loc	1 78 33 is_stmt 1       ## ll.c:78:33
	movq	-48(%rbp), %rax
	.loc	1 78 32 is_stmt 0       ## ll.c:78:32
	movq	%rax, -16(%rbp)
	.loc	1 78 39                 ## ll.c:78:39
	movb	_True(%rip), %cl
	.loc	1 78 32                 ## ll.c:78:32
	movb	%cl, -8(%rbp)
	.loc	1 78 5                  ## ll.c:78:5
	jmp	LBB5_3
Ltmp36:
LBB5_2:
	.loc	1 80 30 is_stmt 1       ## ll.c:80:30
	movq	$0, -16(%rbp)
	.loc	1 80 37 is_stmt 0       ## ll.c:80:37
	movb	_False(%rip), %al
	.loc	1 80 30                 ## ll.c:80:30
	movb	%al, -8(%rbp)
LBB5_3:
	.loc	1 81 1 is_stmt 1        ## ll.c:81:1
	movq	-16(%rbp), %rax
	movb	-8(%rbp), %dl
	addq	$48, %rsp
	popq	%rbp
	retq
Ltmp37:
Lfunc_end5:
	.cfi_endproc

	.globl	_main
	.align	4, 0x90
_main:                                  ## @main
Lfunc_begin6:
	.loc	1 83 0                  ## ll.c:83:0
	.cfi_startproc
## BB#0:
	pushq	%rbp
Ltmp38:
	.cfi_def_cfa_offset 16
Ltmp39:
	.cfi_offset %rbp, -16
	movq	%rsp, %rbp
Ltmp40:
	.cfi_def_cfa_register %rbp
	subq	$32, %rsp
	xorl	%eax, %eax
	movl	%eax, %edi
	movl	$0, -4(%rbp)
	.loc	1 84 14 prologue_end    ## ll.c:84:14
Ltmp41:
	callq	_stack_init
	leaq	L_.str(%rip), %rdi
	.loc	1 84 10 is_stmt 0       ## ll.c:84:10
	movq	%rax, -16(%rbp)
	.loc	1 85 26 is_stmt 1       ## ll.c:85:26
	movq	-16(%rbp), %rsi
	.loc	1 85 3 is_stmt 0        ## ll.c:85:3
	movb	$0, %al
	callq	_printf
	xorl	%ecx, %ecx
	.loc	1 86 3 is_stmt 1        ## ll.c:86:3
	movl	%eax, -20(%rbp)         ## 4-byte Spill
	movl	%ecx, %eax
	addq	$32, %rsp
	popq	%rbp
	retq
Ltmp42:
Lfunc_end6:
	.cfi_endproc

	.section	__DATA,__data
	.globl	_True                   ## @True
_True:
	.byte	1                       ## 0x1

	.globl	_False                  ## @False
.zerofill __DATA,__common,_False,1,0
	.section	__TEXT,__cstring,cstring_literals
L_.str:                                 ## @.str
	.asciz	"%x\n"
